target datalayout = "e-m:e-p270:32:32-p271:32:32-p272:64:64-i64:64-i128:128-f80:128-n8:16:32:64-S128"
target triple = "x86_64-pc-linux-gnu"

%"struct.json11_internal_lightgbm::Statics" = type { %"class.std::shared_ptr", %"class.std::shared_ptr", %"class.std::shared_ptr", %"class.std::__cxx11::basic_string", %"class.std::vector", %"class.std::map" }
%"class.std::shared_ptr" = type { %"class.std::__shared_ptr" }
%"class.std::__shared_ptr" = type { ptr, %"class.std::__shared_count" }
%"class.std::__shared_count" = type { ptr }
%"class.std::__cxx11::basic_string" = type { %"struct.std::__cxx11::basic_string<char>::_Alloc_hider", i64, %union.anon }
%"struct.std::__cxx11::basic_string<char>::_Alloc_hider" = type { ptr }
%union.anon = type { i64, [8 x i8] }
%"class.std::vector" = type { %"struct.std::_Vector_base" }
%"struct.std::_Vector_base" = type { %"struct.std::_Vector_base<json11_internal_lightgbm::Json, std::allocator<json11_internal_lightgbm::Json>>::_Vector_impl" }
%"struct.std::_Vector_base<json11_internal_lightgbm::Json, std::allocator<json11_internal_lightgbm::Json>>::_Vector_impl" = type { %"struct.std::_Vector_base<json11_internal_lightgbm::Json, std::allocator<json11_internal_lightgbm::Json>>::_Vector_impl_data" }
%"struct.std::_Vector_base<json11_internal_lightgbm::Json, std::allocator<json11_internal_lightgbm::Json>>::_Vector_impl_data" = type { ptr, ptr, ptr }
%"class.std::map" = type { %"class.std::_Rb_tree" }
%"class.std::_Rb_tree" = type { %"struct.std::_Rb_tree<std::__cxx11::basic_string<char>, std::pair<const std::__cxx11::basic_string<char>, json11_internal_lightgbm::Json>, std::_Select1st<std::pair<const std::__cxx11::basic_string<char>, json11_internal_lightgbm::Json>>, std::less<std::__cxx11::basic_string<char>>>::_Rb_tree_impl" }
%"struct.std::_Rb_tree<std::__cxx11::basic_string<char>, std::pair<const std::__cxx11::basic_string<char>, json11_internal_lightgbm::Json>, std::_Select1st<std::pair<const std::__cxx11::basic_string<char>, json11_internal_lightgbm::Json>>, std::less<std::__cxx11::basic_string<char>>>::_Rb_tree_impl" = type { %"struct.std::_Rb_tree_key_compare", %"struct.std::_Rb_tree_header" }
%"struct.std::_Rb_tree_key_compare" = type { %"struct.std::less" }
%"struct.std::less" = type { i8 }
%"struct.std::_Rb_tree_header" = type { %"struct.std::_Rb_tree_node_base", i64 }
%"struct.std::_Rb_tree_node_base" = type { i32, ptr, ptr, ptr }

@__dso_handle = external hidden global i8
@_ZZN24json11_internal_lightgbmL7staticsEvE1s = internal global %"struct.json11_internal_lightgbm::Statics" zeroinitializer, align 8
@_ZGVZN24json11_internal_lightgbmL7staticsEvE1s = internal global i64 0, align 8

; Function Attrs: mustprogress uwtable
define internal noundef nonnull align 8 dereferenceable(152) ptr @_ZN24json11_internal_lightgbmL7staticsEv() #1 personality ptr @__gxx_personality_v0 {
  %1 = alloca ptr, align 8
  %2 = alloca i32, align 4
  %3 = load atomic i8, ptr @_ZGVZN24json11_internal_lightgbmL7staticsEvE1s acquire, align 8
  %4 = icmp eq i8 %3, 0
  br i1 %4, label %5, label %11, !prof !5

5:                                                ; preds = %0
  %6 = call i32 @__cxa_guard_acquire(ptr @_ZGVZN24json11_internal_lightgbmL7staticsEvE1s) #5
  %7 = icmp ne i32 %6, 0
  br i1 %7, label %8, label %11

8:                                                ; preds = %5
  invoke void @_ZN24json11_internal_lightgbm7StaticsC2Ev(ptr noundef nonnull align 8 dereferenceable(152) @_ZZN24json11_internal_lightgbmL7staticsEvE1s)
          to label %9 unwind label %12

9:                                                ; preds = %8
  %10 = call i32 @__cxa_atexit(ptr @_ZN24json11_internal_lightgbm7StaticsD2Ev, ptr @_ZZN24json11_internal_lightgbmL7staticsEvE1s, ptr @__dso_handle) #5
  call void @__cxa_guard_release(ptr @_ZGVZN24json11_internal_lightgbmL7staticsEvE1s) #5
  br label %11

11:                                               ; preds = %9, %5, %0
  ret ptr @_ZZN24json11_internal_lightgbmL7staticsEvE1s

12:                                               ; preds = %8
  %13 = landingpad { ptr, i32 }
          cleanup
  %14 = extractvalue { ptr, i32 } %13, 0
  store ptr %14, ptr %1, align 8
  %15 = extractvalue { ptr, i32 } %13, 1
  store i32 %15, ptr %2, align 4
  call void @__cxa_guard_abort(ptr @_ZGVZN24json11_internal_lightgbmL7staticsEvE1s) #5
  br label %16

16:                                               ; preds = %12
  %17 = load ptr, ptr %1, align 8
  %18 = load i32, ptr %2, align 4
  %19 = insertvalue { ptr, i32 } poison, ptr %17, 0
  %20 = insertvalue { ptr, i32 } %19, i32 %18, 1
  resume { ptr, i32 } %20
}

; Function Attrs: mustprogress uwtable
define noundef nonnull align 8 dereferenceable(24) ptr @_ZNK24json11_internal_lightgbm9JsonValue11array_itemsEv(ptr noundef nonnull align 8 dereferenceable(8) %0) unnamed_addr #1 align 2 {
  %2 = alloca ptr, align 8
  store ptr %0, ptr %2, align 8
  %3 = call noundef nonnull align 8 dereferenceable(152) ptr @_ZN24json11_internal_lightgbmL7staticsEv()
  %4 = getelementptr inbounds %"struct.json11_internal_lightgbm::Statics", ptr %3, i32 0, i32 4
  ret ptr %4
}