; Function Attrs: mustprogress uwtable
define noundef nonnull align 8 dereferenceable(24) ptr @_ZNK24json11_internal_lightgbm9JsonValue11array_itemsEv(ptr nocapture nonnull readnone align 8 %0) unnamed_addr #1 align 2 personality ptr @__gxx_personality_v0 {
  %2 = load atomic i8, ptr @_ZGVZN24json11_internal_lightgbmL7staticsEvE1s acquire, align 8
  %3 = icmp eq i8 %2, 0
  br i1 %3, label %4, label %_ZN24json11_internal_lightgbmL7staticsEv.exit, !prof !5

4:                                                ; preds = %1
  %5 = tail call i32 @__cxa_guard_acquire(ptr nonnull @_ZGVZN24json11_internal_lightgbmL7staticsEvE1s) #22
  %.not.i = icmp eq i32 %5, 0
  br i1 %.not.i, label %_ZN24json11_internal_lightgbmL7staticsEv.exit, label %6

6:                                                ; preds = %4
  invoke void @_ZN24json11_internal_lightgbm7StaticsC2Ev(ptr noundef nonnull align 8 dereferenceable(152) @_ZZN24json11_internal_lightgbmL7staticsEvE1s)
          to label %7 unwind label %9

7:                                                ; preds = %6
  %8 = tail call i32 @__cxa_atexit(ptr nonnull @_ZN24json11_internal_lightgbm7StaticsD2Ev, ptr nonnull @_ZZN24json11_internal_lightgbmL7staticsEvE1s, ptr nonnull @__dso_handle) #22
  tail call void @__cxa_guard_release(ptr nonnull @_ZGVZN24json11_internal_lightgbmL7staticsEvE1s) #22
  br label %_ZN24json11_internal_lightgbmL7staticsEv.exit

9:                                                ; preds = %6
  %10 = landingpad { ptr, i32 }
          cleanup
  tail call void @__cxa_guard_abort(ptr nonnull @_ZGVZN24json11_internal_lightgbmL7staticsEvE1s) #22
  resume { ptr, i32 } %10

_ZN24json11_internal_lightgbmL7staticsEv.exit:    ; preds = %1, %4, %7
  ret ptr getelementptr inbounds (i8, ptr @_ZZN24json11_internal_lightgbmL7staticsEvE1s, i64 80)
}